; Function Attrs: mustprogress nofree norecurse nosync nounwind willreturn memory(argmem: readwrite) uwtable
define void @_ZN14duckdb_parquet4swapERNS_17BloomFilterHeaderES1_(ptr noundef nonnull align 8 captures(none) dereferenceable(88) %0, ptr noundef nonnull align 8 captures(none) dereferenceable(88) %1) local_unnamed_addr #10 {
  %3 = getelementptr inbounds nuw i8, ptr %0, i64 8
  %4 = getelementptr inbounds nuw i8, ptr %1, i64 8
  %5 = load i32, ptr %3, align 8, !tbaa !14
  %6 = load i32, ptr %4, align 8, !tbaa !14
  store i32 %6, ptr %3, align 8, !tbaa !14
  store i32 %5, ptr %4, align 8, !tbaa !14
  %7 = getelementptr inbounds nuw i8, ptr %0, i64 32
  %8 = getelementptr inbounds nuw i8, ptr %1, i64 32
  %.sroa.0.0.copyload.i.i = load i8, ptr %7, align 8, !tbaa !38
  %9 = load i8, ptr %8, align 8, !tbaa !38
  store i8 %9, ptr %7, align 8, !tbaa !38
  store i8 %.sroa.0.0.copyload.i.i, ptr %8, align 8, !tbaa !38
  %10 = getelementptr inbounds nuw i8, ptr %0, i64 56
  %11 = getelementptr inbounds nuw i8, ptr %1, i64 56
  %.sroa.0.0.copyload.i.i8 = load i8, ptr %10, align 8, !tbaa !38
  %12 = load i8, ptr %11, align 8, !tbaa !38
  store i8 %12, ptr %10, align 8, !tbaa !38
  store i8 %.sroa.0.0.copyload.i.i8, ptr %11, align 8, !tbaa !38
  %13 = getelementptr inbounds nuw i8, ptr %0, i64 80
  %14 = getelementptr inbounds nuw i8, ptr %1, i64 80
  %.sroa.0.0.copyload.i.i9 = load i8, ptr %13, align 8, !tbaa !38
  %15 = load i8, ptr %14, align 8, !tbaa !38
  store i8 %15, ptr %13, align 8, !tbaa !38
  store i8 %.sroa.0.0.copyload.i.i9, ptr %14, align 8, !tbaa !38
  ret void
}